; Function Attrs: mustprogress uwtable
define hidden noundef zeroext i1 @_ZN4lean10is_bin_appERKNS_4exprES2_RS0_S3_(ptr noundef nonnull readonly align 8 captures(none) dereferenceable(8) %0, ptr noundef nonnull align 8 dereferenceable(8) %1, ptr noundef nonnull align 8 captures(none) dereferenceable(8) %2, ptr noundef nonnull align 8 captures(none) dereferenceable(8) %3) local_unnamed_addr #0 {
  %5 = load ptr, ptr %0, align 8, !tbaa !3
  %6 = getelementptr i8, ptr %5, i64 4
  %.val.i.i.i.i.i = load i32, ptr %6, align 4
  %.mask.i.i = and i32 %.val.i.i.i.i.i, -16777216
  %7 = icmp eq i32 %.mask.i.i, 83886080
  br i1 %7, label %8, label %_ZN4lean10is_bin_appERKNS_4exprES2_.exit.thread

8:                                                ; preds = %4
  %9 = getelementptr inbounds nuw i8, ptr %5, i64 8
  %10 = load ptr, ptr %9, align 8, !tbaa !3
  %11 = getelementptr i8, ptr %10, i64 4
  %.val.i.i.i.i4.i = load i32, ptr %11, align 4
  %.mask.i5.i = and i32 %.val.i.i.i.i4.i, -16777216
  %12 = icmp eq i32 %.mask.i5.i, 83886080
  br i1 %12, label %_ZN4lean10is_bin_appERKNS_4exprES2_.exit, label %_ZN4lean10is_bin_appERKNS_4exprES2_.exit.thread

_ZN4lean10is_bin_appERKNS_4exprES2_.exit:         ; preds = %8
  %13 = getelementptr inbounds nuw i8, ptr %10, i64 8
  %14 = tail call noundef zeroext i1 @_ZN4lean8is_equalERKNS_4exprES2_(ptr noundef nonnull align 8 dereferenceable(8) %13, ptr noundef nonnull align 8 dereferenceable(8) %1)
  br i1 %14, label %15, label %_ZN4lean10is_bin_appERKNS_4exprES2_.exit.thread

15:                                               ; preds = %_ZN4lean10is_bin_appERKNS_4exprES2_.exit
  %16 = load ptr, ptr %0, align 8, !tbaa !3
  %17 = getelementptr inbounds nuw i8, ptr %16, i64 8
  %18 = load ptr, ptr %17, align 8, !tbaa !3
  %19 = getelementptr inbounds nuw i8, ptr %18, i64 16
  %20 = load ptr, ptr %19, align 8, !tbaa !3
  %21 = ptrtoint ptr %20 to i64
  %22 = and i64 %21, 1
  %.not.i.i.i = icmp eq i64 %22, 0
  br i1 %.not.i.i.i, label %23, label %_ZN4lean3incEP11lean_object.exit.i.i

23:                                               ; preds = %15
  %.val.i.i.i.i = load i32, ptr %20, align 4, !tbaa !8
  %24 = icmp sgt i32 %.val.i.i.i.i, 0
  br i1 %24, label %25, label %27, !prof !11

25:                                               ; preds = %23
  %26 = add nuw nsw i32 %.val.i.i.i.i, 1
  store i32 %26, ptr %20, align 4, !tbaa !8
  br label %_ZN4lean3incEP11lean_object.exit.i.i

27:                                               ; preds = %23
  %.not.i.i.i.i = icmp eq i32 %.val.i.i.i.i, 0
  br i1 %.not.i.i.i.i, label %_ZN4lean3incEP11lean_object.exit.i.i, label %28

28:                                               ; preds = %27
  tail call void @lean_inc_ref_cold(ptr noundef nonnull %20)
  %.pre.i.i = load ptr, ptr %19, align 8, !tbaa !3
  br label %_ZN4lean3incEP11lean_object.exit.i.i

_ZN4lean3incEP11lean_object.exit.i.i:             ; preds = %28, %27, %25, %15
  %29 = phi ptr [ %20, %15 ], [ %20, %25 ], [ %20, %27 ], [ %.pre.i.i, %28 ]
  %30 = load ptr, ptr %2, align 8, !tbaa !3
  %31 = ptrtoint ptr %30 to i64
  %32 = and i64 %31, 1
  %.not.i4.i.i = icmp eq i64 %32, 0
  br i1 %.not.i4.i.i, label %33, label %_ZN4lean4expraSERKS0_.exit

33:                                               ; preds = %_ZN4lean3incEP11lean_object.exit.i.i
  %34 = load i32, ptr %30, align 4, !tbaa !8
  %35 = icmp sgt i32 %34, 1
  br i1 %35, label %36, label %38, !prof !11

36:                                               ; preds = %33
  %37 = add nsw i32 %34, -1
  store i32 %37, ptr %30, align 4, !tbaa !8
  br label %_ZN4lean4expraSERKS0_.exit

38:                                               ; preds = %33
  %.not.i.i5.i.i = icmp eq i32 %34, 0
  br i1 %.not.i.i5.i.i, label %_ZN4lean4expraSERKS0_.exit, label %39

39:                                               ; preds = %38
  tail call void @lean_dec_ref_cold(ptr noundef nonnull %30)
  br label %_ZN4lean4expraSERKS0_.exit

_ZN4lean4expraSERKS0_.exit:                       ; preds = %_ZN4lean3incEP11lean_object.exit.i.i, %36, %38, %39
  store ptr %29, ptr %2, align 8, !tbaa !3
  %40 = load ptr, ptr %0, align 8, !tbaa !3
  %41 = getelementptr inbounds nuw i8, ptr %40, i64 16
  %42 = load ptr, ptr %41, align 8, !tbaa !3
  %43 = ptrtoint ptr %42 to i64
  %44 = and i64 %43, 1
  %.not.i.i.i7 = icmp eq i64 %44, 0
  br i1 %.not.i.i.i7, label %45, label %_ZN4lean3incEP11lean_object.exit.i.i8

45:                                               ; preds = %_ZN4lean4expraSERKS0_.exit
  %.val.i.i.i.i11 = load i32, ptr %42, align 4, !tbaa !8
  %46 = icmp sgt i32 %.val.i.i.i.i11, 0
  br i1 %46, label %47, label %49, !prof !11

47:                                               ; preds = %45
  %48 = add nuw nsw i32 %.val.i.i.i.i11, 1
  store i32 %48, ptr %42, align 4, !tbaa !8
  br label %_ZN4lean3incEP11lean_object.exit.i.i8

49:                                               ; preds = %45
  %.not.i.i.i.i12 = icmp eq i32 %.val.i.i.i.i11, 0
  br i1 %.not.i.i.i.i12, label %_ZN4lean3incEP11lean_object.exit.i.i8, label %50

50:                                               ; preds = %49
  tail call void @lean_inc_ref_cold(ptr noundef nonnull %42)
  %.pre.i.i13 = load ptr, ptr %41, align 8, !tbaa !3
  br label %_ZN4lean3incEP11lean_object.exit.i.i8

_ZN4lean3incEP11lean_object.exit.i.i8:            ; preds = %50, %49, %47, %_ZN4lean4expraSERKS0_.exit
  %51 = phi ptr [ %42, %_ZN4lean4expraSERKS0_.exit ], [ %42, %47 ], [ %42, %49 ], [ %.pre.i.i13, %50 ]
  %52 = load ptr, ptr %3, align 8, !tbaa !3
  %53 = ptrtoint ptr %52 to i64
  %54 = and i64 %53, 1
  %.not.i4.i.i9 = icmp eq i64 %54, 0
  br i1 %.not.i4.i.i9, label %55, label %_ZN4lean4expraSERKS0_.exit14

55:                                               ; preds = %_ZN4lean3incEP11lean_object.exit.i.i8
  %56 = load i32, ptr %52, align 4, !tbaa !8
  %57 = icmp sgt i32 %56, 1
  br i1 %57, label %58, label %60, !prof !11

58:                                               ; preds = %55
  %59 = add nsw i32 %56, -1
  store i32 %59, ptr %52, align 4, !tbaa !8
  br label %_ZN4lean4expraSERKS0_.exit14

60:                                               ; preds = %55
  %.not.i.i5.i.i10 = icmp eq i32 %56, 0
  br i1 %.not.i.i5.i.i10, label %_ZN4lean4expraSERKS0_.exit14, label %61

61:                                               ; preds = %60
  tail call void @lean_dec_ref_cold(ptr noundef nonnull %52)
  br label %_ZN4lean4expraSERKS0_.exit14

_ZN4lean4expraSERKS0_.exit14:                     ; preds = %_ZN4lean3incEP11lean_object.exit.i.i8, %58, %60, %61
  store ptr %51, ptr %3, align 8, !tbaa !3
  br label %_ZN4lean10is_bin_appERKNS_4exprES2_.exit.thread

_ZN4lean10is_bin_appERKNS_4exprES2_.exit.thread:  ; preds = %4, %8, %_ZN4lean10is_bin_appERKNS_4exprES2_.exit, %_ZN4lean4expraSERKS0_.exit14
  %62 = phi i1 [ false, %_ZN4lean10is_bin_appERKNS_4exprES2_.exit ], [ true, %_ZN4lean4expraSERKS0_.exit14 ], [ false, %8 ], [ false, %4 ]
  ret i1 %62
}